target datalayout = "e-m:e-p270:32:32-p271:32:32-p272:64:64-i64:64-i128:128-f80:128-n8:16:32:64-S128"
target triple = "x86_64-pc-linux-gnu"

%struct._packet_info = type { ptr, ptr, i32, i32, %struct.nstime_t, %struct.nstime_t, %struct.nstime_t, i8, ptr, ptr, ptr, ptr, %struct._address, %struct._address, %struct._address, %struct._address, %struct._address, %struct._address, i32, ptr, i8, [3 x i8], %struct.anon, i32, i32, i32, i32, ptr, i8, ptr, ptr, i16, i16, i32, i32, i16, i32, i32, ptr, ptr, ptr, i8, i8, i16, i16, i16, i32, i16, i16, ptr, ptr, ptr, ptr, ptr, i32, i32 }
%struct.nstime_t = type { i64, i32 }
%struct._address = type { i32, i32, ptr, ptr }
%struct.anon = type { i8, [3 x i8] }

@hf_awdl_data_seq = internal global i32 0, align 4
@hf_awdl_data_header = internal global i32 0, align 4
@hf_awdl_data_ethertype = internal global i32 0, align 4
@hf_awdl_tagged_parameters = internal global i32 0, align 4
@ett_awdl_data = internal global i32 0, align 4
@ett_awdl_tagged_parameters = internal global i32 0, align 4
@proto_awdl_data = internal global i32 0, align 4
@ethertype_subdissector_table = internal global ptr null, align 8
@.str.547 = private unnamed_addr constant [10 x i8] c"AWDL Data\00", align 1
@.str.548 = private unnamed_addr constant [7 x i8] c"Seq=%u\00", align 1
@.str.549 = private unnamed_addr constant [10 x i8] c", Seq: %u\00", align 1
@.str.550 = private unnamed_addr constant [12 x i8] c" (%d bytes)\00", align 1

; Function Attrs: null_pointer_is_valid sspstrong uwtable
define internal i32 @dissect_awdl_data(ptr noundef %0, ptr noundef %1, ptr noundef %2, ptr noundef %3) #0 {
  %5 = alloca ptr, align 8
  %6 = alloca ptr, align 8
  %7 = alloca ptr, align 8
  %8 = alloca ptr, align 8
  %9 = alloca i32, align 4
  %10 = alloca i32, align 4
  %11 = alloca ptr, align 8
  %12 = alloca ptr, align 8
  %13 = alloca ptr, align 8
  %14 = alloca i32, align 4
  %15 = alloca ptr, align 8
  %16 = alloca ptr, align 8
  %17 = alloca i32, align 4
  %18 = alloca i8, align 1
  store ptr %0, ptr %5, align 8
  store ptr %1, ptr %6, align 8
  store ptr %2, ptr %7, align 8
  store ptr %3, ptr %8, align 8
  call void @llvm.lifetime.start.p0(i64 4, ptr %9) #6
  store i32 0, ptr %9, align 4
  call void @llvm.lifetime.start.p0(i64 4, ptr %10) #6
  call void @llvm.lifetime.start.p0(i64 8, ptr %11) #6
  call void @llvm.lifetime.start.p0(i64 8, ptr %12) #6
  call void @llvm.lifetime.start.p0(i64 8, ptr %13) #6
  call void @llvm.lifetime.start.p0(i64 4, ptr %14) #6
  %19 = load ptr, ptr %6, align 8
  %20 = getelementptr inbounds nuw %struct._packet_info, ptr %19, i32 0, i32 1
  %21 = load ptr, ptr %20, align 8
  call void @col_set_str(ptr noundef %21, i32 noundef 35, ptr noundef @.str.547)
  %22 = load ptr, ptr %6, align 8
  %23 = getelementptr inbounds nuw %struct._packet_info, ptr %22, i32 0, i32 1
  %24 = load ptr, ptr %23, align 8
  call void @col_clear(ptr noundef %24, i32 noundef 25)
  %25 = load ptr, ptr %7, align 8
  %26 = load i32, ptr @proto_awdl_data, align 4
  %27 = load ptr, ptr %5, align 8
  %28 = call ptr @proto_tree_add_item(ptr noundef %25, i32 noundef %26, ptr noundef %27, i32 noundef 0, i32 noundef -1, i32 noundef 0)
  store ptr %28, ptr %12, align 8
  %29 = load ptr, ptr %12, align 8
  %30 = load i32, ptr @ett_awdl_data, align 4
  %31 = call ptr @proto_item_add_subtree(ptr noundef %29, i32 noundef %30)
  store ptr %31, ptr %13, align 8
  %32 = load ptr, ptr %13, align 8
  %33 = load i32, ptr @hf_awdl_data_header, align 4
  %34 = load ptr, ptr %5, align 8
  %35 = load i32, ptr %9, align 4
  %36 = call ptr @proto_tree_add_item(ptr noundef %32, i32 noundef %33, ptr noundef %34, i32 noundef %35, i32 noundef 2, i32 noundef 0)
  %37 = load i32, ptr %9, align 4
  %38 = add i32 %37, 2
  store i32 %38, ptr %9, align 4
  %39 = load ptr, ptr %13, align 8
  %40 = load i32, ptr @hf_awdl_data_seq, align 4
  %41 = load ptr, ptr %5, align 8
  %42 = load i32, ptr %9, align 4
  %43 = call ptr @proto_tree_add_item_ret_uint(ptr noundef %39, i32 noundef %40, ptr noundef %41, i32 noundef %42, i32 noundef 2, i32 noundef -2147483648, ptr noundef %14)
  %44 = load ptr, ptr %6, align 8
  %45 = getelementptr inbounds nuw %struct._packet_info, ptr %44, i32 0, i32 1
  %46 = load ptr, ptr %45, align 8
  %47 = load i32, ptr %14, align 4
  call void (ptr, i32, ptr, ...) @col_add_fstr(ptr noundef %46, i32 noundef 25, ptr noundef @.str.548, i32 noundef %47)
  %48 = load ptr, ptr %12, align 8
  %49 = load i32, ptr %14, align 4
  call void (ptr, ptr, ...) @proto_item_append_text(ptr noundef %48, ptr noundef @.str.549, i32 noundef %49)
  %50 = load i32, ptr %9, align 4
  %51 = add i32 %50, 2
  store i32 %51, ptr %9, align 4
  %52 = load ptr, ptr %5, align 8
  %53 = load i32, ptr %9, align 4
  %54 = call zeroext i8 @tvb_get_uint8(ptr noundef %52, i32 noundef %53)
  %55 = zext i8 %54 to i32
  %56 = icmp eq i32 %55, 3
  br i1 %56, label %57, label %124

57:                                               ; preds = %4
  call void @llvm.lifetime.start.p0(i64 8, ptr %15) #6
  call void @llvm.lifetime.start.p0(i64 8, ptr %16) #6
  call void @llvm.lifetime.start.p0(i64 4, ptr %17) #6
  call void @llvm.lifetime.start.p0(i64 1, ptr %18) #6
  %58 = load ptr, ptr %5, align 8
  %59 = load i32, ptr %9, align 4
  %60 = add i32 %59, 1
  %61 = call zeroext i8 @tvb_get_uint8(ptr noundef %58, i32 noundef %60)
  store i8 %61, ptr %18, align 1
  %62 = load ptr, ptr %13, align 8
  %63 = load i32, ptr @hf_awdl_data_header, align 4
  %64 = load ptr, ptr %5, align 8
  %65 = load i32, ptr %9, align 4
  %66 = load i8, ptr %18, align 1
  %67 = zext i8 %66 to i32
  %68 = add i32 2, %67
  %69 = call ptr @proto_tree_add_item(ptr noundef %62, i32 noundef %63, ptr noundef %64, i32 noundef %65, i32 noundef %68, i32 noundef 0)
  %70 = load i8, ptr %18, align 1
  %71 = zext i8 %70 to i32
  %72 = add i32 2, %71
  %73 = load i32, ptr %9, align 4
  %74 = add i32 %73, %72
  store i32 %74, ptr %9, align 4
  %75 = load ptr, ptr %13, align 8
  %76 = load i32, ptr @hf_awdl_tagged_parameters, align 4
  %77 = load ptr, ptr %5, align 8
  %78 = load i32, ptr %9, align 4
  %79 = call ptr @proto_tree_add_item(ptr noundef %75, i32 noundef %76, ptr noundef %77, i32 noundef %78, i32 noundef 0, i32 noundef 0)
  store ptr %79, ptr %15, align 8
  %80 = load ptr, ptr %15, align 8
  %81 = load i32, ptr @ett_awdl_tagged_parameters, align 4
  %82 = call ptr @proto_item_add_subtree(ptr noundef %80, i32 noundef %81)
  store ptr %82, ptr %16, align 8
  %83 = load i32, ptr %9, align 4
  store i32 %83, ptr %17, align 4
  br label %84

84:                                               ; preds = %90, %57
  %85 = load ptr, ptr %5, align 8
  %86 = load i32, ptr %9, align 4
  %87 = call zeroext i8 @tvb_get_uint8(ptr noundef %85, i32 noundef %86)
  %88 = zext i8 %87 to i32
  %89 = icmp ne i32 %88, 3
  br i1 %89, label %90, label %98

90:                                               ; preds = %84
  %91 = load ptr, ptr %6, align 8
  %92 = load ptr, ptr %16, align 8
  %93 = load ptr, ptr %5, align 8
  %94 = load i32, ptr %9, align 4
  %95 = call i32 @awdl_add_tagged_field(ptr noundef %91, ptr noundef %92, ptr noundef %93, i32 noundef %94, i32 noundef 2)
  %96 = load i32, ptr %9, align 4
  %97 = add i32 %96, %95
  store i32 %97, ptr %9, align 4
  br label %84, !llvm.loop !6

98:                                               ; preds = %84
  %99 = load ptr, ptr %5, align 8
  %100 = load i32, ptr %9, align 4
  %101 = add i32 %100, 1
  %102 = call zeroext i8 @tvb_get_uint8(ptr noundef %99, i32 noundef %101)
  store i8 %102, ptr %18, align 1
  %103 = load ptr, ptr %13, align 8
  %104 = load i32, ptr @hf_awdl_data_header, align 4
  %105 = load ptr, ptr %5, align 8
  %106 = load i32, ptr %9, align 4
  %107 = load i8, ptr %18, align 1
  %108 = zext i8 %107 to i32
  %109 = add i32 2, %108
  %110 = call ptr @proto_tree_add_item(ptr noundef %103, i32 noundef %104, ptr noundef %105, i32 noundef %106, i32 noundef %109, i32 noundef 0)
  %111 = load i8, ptr %18, align 1
  %112 = zext i8 %111 to i32
  %113 = add i32 2, %112
  %114 = load i32, ptr %9, align 4
  %115 = add i32 %114, %113
  store i32 %115, ptr %9, align 4
  %116 = load ptr, ptr %15, align 8
  %117 = load i32, ptr %9, align 4
  %118 = load i32, ptr %17, align 4
  %119 = sub i32 %117, %118
  call void @proto_item_set_len(ptr noundef %116, i32 noundef %119)
  %120 = load ptr, ptr %15, align 8
  %121 = load i32, ptr %9, align 4
  %122 = load i32, ptr %17, align 4
  %123 = sub i32 %121, %122
  call void (ptr, ptr, ...) @proto_item_append_text(ptr noundef %120, ptr noundef @.str.550, i32 noundef %123)
  call void @llvm.lifetime.end.p0(i64 1, ptr %18) #6
  call void @llvm.lifetime.end.p0(i64 4, ptr %17) #6
  call void @llvm.lifetime.end.p0(i64 8, ptr %16) #6
  call void @llvm.lifetime.end.p0(i64 8, ptr %15) #6
  br label %132

124:                                              ; preds = %4
  %125 = load ptr, ptr %13, align 8
  %126 = load i32, ptr @hf_awdl_data_header, align 4
  %127 = load ptr, ptr %5, align 8
  %128 = load i32, ptr %9, align 4
  %129 = call ptr @proto_tree_add_item(ptr noundef %125, i32 noundef %126, ptr noundef %127, i32 noundef %128, i32 noundef 2, i32 noundef 0)
  %130 = load i32, ptr %9, align 4
  %131 = add i32 %130, 2
  store i32 %131, ptr %9, align 4
  br label %132

132:                                              ; preds = %124, %98
  %133 = load ptr, ptr %13, align 8
  %134 = load i32, ptr @hf_awdl_data_ethertype, align 4
  %135 = load ptr, ptr %5, align 8
  %136 = load i32, ptr %9, align 4
  %137 = call ptr @proto_tree_add_item_ret_uint(ptr noundef %133, i32 noundef %134, ptr noundef %135, i32 noundef %136, i32 noundef 2, i32 noundef 0, ptr noundef %10)
  %138 = load i32, ptr %9, align 4
  %139 = add i32 %138, 2
  store i32 %139, ptr %9, align 4
  %140 = load ptr, ptr %13, align 8
  %141 = load i32, ptr %9, align 4
  call void @proto_item_set_len(ptr noundef %140, i32 noundef %141)
  %142 = load ptr, ptr %5, align 8
  %143 = load i32, ptr %9, align 4
  %144 = call ptr @tvb_new_subset_remaining(ptr noundef %142, i32 noundef %143)
  store ptr %144, ptr %11, align 8
  %145 = load ptr, ptr @ethertype_subdissector_table, align 8
  %146 = load i32, ptr %10, align 4
  %147 = load ptr, ptr %11, align 8
  %148 = load ptr, ptr %6, align 8
  %149 = load ptr, ptr %7, align 8
  %150 = call i32 @dissector_try_uint(ptr noundef %145, i32 noundef %146, ptr noundef %147, ptr noundef %148, ptr noundef %149)
  %151 = icmp ne i32 %150, 0
  br i1 %151, label %157, label %152

152:                                              ; preds = %132
  %153 = load ptr, ptr %11, align 8
  %154 = load ptr, ptr %6, align 8
  %155 = load ptr, ptr %7, align 8
  %156 = call i32 @call_data_dissector(ptr noundef %153, ptr noundef %154, ptr noundef %155)
  br label %157

157:                                              ; preds = %152, %132
  %158 = load ptr, ptr %5, align 8
  %159 = call i32 @tvb_captured_length(ptr noundef %158)
  call void @llvm.lifetime.end.p0(i64 4, ptr %14) #6
  call void @llvm.lifetime.end.p0(i64 8, ptr %13) #6
  call void @llvm.lifetime.end.p0(i64 8, ptr %12) #6
  call void @llvm.lifetime.end.p0(i64 8, ptr %11) #6
  call void @llvm.lifetime.end.p0(i64 4, ptr %10) #6
  call void @llvm.lifetime.end.p0(i64 4, ptr %9) #6
  ret i32 %159
}