; Function Attrs: null_pointer_is_valid sspstrong uwtable
define internal i32 @dissect_awdl_data(ptr noundef %0, ptr noundef %1, ptr noundef %2, ptr readnone captures(none) %3) #0 {
  %5 = alloca i32, align 4
  %6 = alloca i32, align 4
  call void @llvm.lifetime.start.p0(i64 4, ptr nonnull %5) #5
  call void @llvm.lifetime.start.p0(i64 4, ptr nonnull %6) #5
  %7 = getelementptr inbounds nuw i8, ptr %1, i64 8
  %8 = load ptr, ptr %7, align 8
  tail call void @col_set_str(ptr noundef %8, i32 noundef 35, ptr noundef nonnull @.str.547)
  %9 = load ptr, ptr %7, align 8
  tail call void @col_clear(ptr noundef %9, i32 noundef 25)
  %10 = load i32, ptr @proto_awdl_data, align 4
  %11 = tail call ptr @proto_tree_add_item(ptr noundef %2, i32 noundef %10, ptr noundef %0, i32 noundef 0, i32 noundef -1, i32 noundef 0)
  %12 = load i32, ptr @ett_awdl_data, align 4
  %13 = tail call ptr @proto_item_add_subtree(ptr noundef %11, i32 noundef %12)
  %14 = load i32, ptr @hf_awdl_data_header, align 4
  %15 = tail call ptr @proto_tree_add_item(ptr noundef %13, i32 noundef %14, ptr noundef %0, i32 noundef 0, i32 noundef 2, i32 noundef 0)
  %16 = load i32, ptr @hf_awdl_data_seq, align 4
  %17 = call ptr @proto_tree_add_item_ret_uint(ptr noundef %13, i32 noundef %16, ptr noundef %0, i32 noundef 2, i32 noundef 2, i32 noundef -2147483648, ptr noundef nonnull %6)
  %18 = load ptr, ptr %7, align 8
  %19 = load i32, ptr %6, align 4
  call void (ptr, i32, ptr, ...) @col_add_fstr(ptr noundef %18, i32 noundef 25, ptr noundef nonnull @.str.548, i32 noundef %19)
  %20 = load i32, ptr %6, align 4
  call void (ptr, ptr, ...) @proto_item_append_text(ptr noundef %11, ptr noundef nonnull @.str.549, i32 noundef %20)
  %21 = call zeroext i8 @tvb_get_uint8(ptr noundef %0, i32 noundef 4)
  %22 = icmp eq i8 %21, 3
  br i1 %22, label %23, label %46

23:                                               ; preds = %4
  %24 = call zeroext i8 @tvb_get_uint8(ptr noundef %0, i32 noundef 5)
  %25 = load i32, ptr @hf_awdl_data_header, align 4
  %26 = zext i8 %24 to i32
  %27 = add nuw nsw i32 %26, 2
  %28 = call ptr @proto_tree_add_item(ptr noundef %13, i32 noundef %25, ptr noundef %0, i32 noundef 4, i32 noundef %27, i32 noundef 0)
  %29 = add nuw nsw i32 %26, 6
  %30 = load i32, ptr @hf_awdl_tagged_parameters, align 4
  %31 = call ptr @proto_tree_add_item(ptr noundef %13, i32 noundef %30, ptr noundef %0, i32 noundef %29, i32 noundef 0, i32 noundef 0)
  %32 = load i32, ptr @ett_awdl_tagged_parameters, align 4
  %33 = call ptr @proto_item_add_subtree(ptr noundef %31, i32 noundef %32)
  %34 = call zeroext i8 @tvb_get_uint8(ptr noundef %0, i32 noundef %29)
  %.not70 = icmp eq i8 %34, 3
  br i1 %.not70, label %._crit_edge, label %.lr.ph

.lr.ph:                                           ; preds = %23, %.lr.ph
  %.071 = phi i32 [ %36, %.lr.ph ], [ %29, %23 ]
  %35 = call fastcc i32 @awdl_add_tagged_field(ptr noundef %1, ptr noundef %33, ptr noundef %0, i32 noundef %.071, i32 noundef 2)
  %36 = add i32 %35, %.071
  %37 = call zeroext i8 @tvb_get_uint8(ptr noundef %0, i32 noundef %36)
  %.not = icmp eq i8 %37, 3
  br i1 %.not, label %._crit_edge, label %.lr.ph, !llvm.loop !6

._crit_edge:                                      ; preds = %.lr.ph, %23
  %.0.lcssa = phi i32 [ %29, %23 ], [ %36, %.lr.ph ]
  %38 = add i32 %.0.lcssa, 1
  %39 = call zeroext i8 @tvb_get_uint8(ptr noundef %0, i32 noundef %38)
  %40 = load i32, ptr @hf_awdl_data_header, align 4
  %41 = zext i8 %39 to i32
  %42 = add nuw nsw i32 %41, 2
  %43 = call ptr @proto_tree_add_item(ptr noundef %13, i32 noundef %40, ptr noundef %0, i32 noundef %.0.lcssa, i32 noundef %42, i32 noundef 0)
  %44 = add i32 %42, %.0.lcssa
  %45 = sub i32 %44, %29
  call void @proto_item_set_len(ptr noundef %31, i32 noundef %45)
  call void (ptr, ptr, ...) @proto_item_append_text(ptr noundef %31, ptr noundef nonnull @.str.550, i32 noundef %45)
  br label %49

46:                                               ; preds = %4
  %47 = load i32, ptr @hf_awdl_data_header, align 4
  %48 = call ptr @proto_tree_add_item(ptr noundef %13, i32 noundef %47, ptr noundef %0, i32 noundef 4, i32 noundef 2, i32 noundef 0)
  br label %49

49:                                               ; preds = %46, %._crit_edge
  %.1 = phi i32 [ %44, %._crit_edge ], [ 6, %46 ]
  %50 = load i32, ptr @hf_awdl_data_ethertype, align 4
  %51 = call ptr @proto_tree_add_item_ret_uint(ptr noundef %13, i32 noundef %50, ptr noundef %0, i32 noundef %.1, i32 noundef 2, i32 noundef 0, ptr noundef nonnull %5)
  %52 = add i32 %.1, 2
  call void @proto_item_set_len(ptr noundef %13, i32 noundef %52)
  %53 = call ptr @tvb_new_subset_remaining(ptr noundef %0, i32 noundef %52)
  %54 = load ptr, ptr @ethertype_subdissector_table, align 8
  %55 = load i32, ptr %5, align 4
  %56 = call i32 @dissector_try_uint(ptr noundef %54, i32 noundef %55, ptr noundef %53, ptr noundef %1, ptr noundef %2)
  %.not69 = icmp eq i32 %56, 0
  br i1 %.not69, label %57, label %59

57:                                               ; preds = %49
  %58 = call i32 @call_data_dissector(ptr noundef %53, ptr noundef %1, ptr noundef %2)
  br label %59

59:                                               ; preds = %57, %49
  %60 = call i32 @tvb_captured_length(ptr noundef %0)
  call void @llvm.lifetime.end.p0(i64 4, ptr nonnull %6) #5
  call void @llvm.lifetime.end.p0(i64 4, ptr nonnull %5) #5
  ret i32 %60
}